; Function Attrs: mustprogress uwtable
define hidden noundef zeroext i1 @_ZN6spacer10iuc_solver8is_proxyEP4exprR7obj_refI3app11ast_managerE(ptr nocapture noundef nonnull readonly align 8 dereferenceable(398) %this, ptr noundef %e, ptr nocapture noundef nonnull align 8 dereferenceable(16) %def) local_unnamed_addr #3 align 2 {
entry:
  %m_kind.i.i = getelementptr inbounds i8, ptr %e, i64 4
  %bf.load.i.i = load i32, ptr %m_kind.i.i, align 4
  %bf.clear.i.i = and i32 %bf.load.i.i, 65535
  %cmp.i = icmp eq i32 %bf.clear.i.i, 0
  br i1 %cmp.i, label %land.lhs.true.i, label %return

land.lhs.true.i:                                  ; preds = %entry
  %m_num_args.i.i = getelementptr inbounds i8, ptr %e, i64 24
  %0 = load i32, ptr %m_num_args.i.i, align 8
  %cmp3.i = icmp eq i32 %0, 0
  br i1 %cmp3.i, label %land.rhs.i, label %return

land.rhs.i:                                       ; preds = %land.lhs.true.i
  %m_decl.i.i.i = getelementptr inbounds i8, ptr %e, i64 16
  %1 = load ptr, ptr %m_decl.i.i.i, align 8
  %m_info.i.i.i = getelementptr inbounds i8, ptr %1, i64 24
  %2 = load ptr, ptr %m_info.i.i.i, align 8
  %cmp.i.i.i = icmp eq ptr %2, null
  br i1 %cmp.i.i.i, label %if.end, label %_Z17is_uninterp_constPK4expr.exit

_Z17is_uninterp_constPK4expr.exit:                ; preds = %land.rhs.i
  %3 = load i32, ptr %2, align 8
  %4 = icmp eq i32 %3, -1
  br i1 %4, label %if.end, label %return

if.end:                                           ; preds = %land.rhs.i, %_Z17is_uninterp_constPK4expr.exit
  %m_defs = getelementptr inbounds i8, ptr %this, i64 128
  %5 = load ptr, ptr %m_defs, align 8
  %cmp.i5 = icmp eq ptr %5, null
  br i1 %cmp.i5, label %for.cond.preheader, label %if.end.i

if.end.i:                                         ; preds = %if.end
  %arrayidx.i = getelementptr inbounds i8, ptr %5, i64 -4
  %6 = load i32, ptr %arrayidx.i, align 4
  %7 = zext i32 %6 to i64
  br label %for.cond.preheader

for.cond.preheader:                               ; preds = %if.end, %if.end.i
  %indvars.iv.ph = phi i64 [ 0, %if.end ], [ %7, %if.end.i ]
  br label %for.cond

for.cond:                                         ; preds = %for.cond.preheader, %for.body
  %indvars.iv = phi i64 [ %9, %for.body ], [ %indvars.iv.ph, %for.cond.preheader ]
  %8 = trunc i64 %indvars.iv to i32
  %cmp = icmp sgt i32 %8, 0
  br i1 %cmp, label %for.body, label %for.end

for.body:                                         ; preds = %for.cond
  %9 = add nsw i64 %indvars.iv, -1
  %10 = load ptr, ptr %m_defs, align 8
  %arrayidx.i6 = getelementptr inbounds %"struct.spacer::iuc_solver::def_manager", ptr %10, i64 %9
  %call6 = tail call noundef zeroext i1 @_ZN6spacer10iuc_solver11def_manager8is_proxyEP3appR7obj_refIS2_11ast_managerE(ptr noundef nonnull align 8 dereferenceable(72) %arrayidx.i6, ptr noundef %e, ptr noundef nonnull align 8 dereferenceable(16) %def)
  br i1 %call6, label %return, label %for.cond, !llvm.loop !17

for.end:                                          ; preds = %for.cond
  %m_base_defs = getelementptr inbounds i8, ptr %this, i64 136
  %call9 = tail call noundef zeroext i1 @_ZN6spacer10iuc_solver11def_manager8is_proxyEP3appR7obj_refIS2_11ast_managerE(ptr noundef nonnull align 8 dereferenceable(72) %m_base_defs, ptr noundef %e, ptr noundef nonnull align 8 dereferenceable(16) %def)
  br label %return

return:                                           ; preds = %for.body, %entry, %land.lhs.true.i, %_Z17is_uninterp_constPK4expr.exit, %for.end
  %retval.0 = phi i1 [ %call9, %for.end ], [ false, %_Z17is_uninterp_constPK4expr.exit ], [ false, %land.lhs.true.i ], [ false, %entry ], [ true, %for.body ]
  ret i1 %retval.0
}